target datalayout = "e-m:e-p270:32:32-p271:32:32-p272:64:64-i64:64-i128:128-f80:128-n8:16:32:64-S128"
target triple = "x86_64-pc-linux-gnu"

@.str.28 = private unnamed_addr constant [34 x i8] c"../openssl/test/evp_extra_test2.c\00", align 1
@.str.229 = private unnamed_addr constant [88 x i8] c"EVP_PBE_alg_add(NID_pbeWithMD5AndDES_CBC, EVP_des_cbc(), EVP_md5(), PKCS5_PBE_keyivgen)\00", align 1
@.str.230 = private unnamed_addr constant [105 x i8] c"EVP_PBE_find_ex(EVP_PBE_TYPE_OUTER, NID_pbeWithMD5AndDES_CBC, &cipher_nid, &md_nid, &keygen, &keygen_ex)\00", align 1
@.str.231 = private unnamed_addr constant [15 x i8] c"keygen != NULL\00", align 1
@.str.232 = private unnamed_addr constant [18 x i8] c"keygen_ex == NULL\00", align 1

; Function Attrs: nounwind uwtable
define internal i32 @test_evp_pbe_alg_add() #0 {
  %1 = alloca i32, align 4
  %2 = alloca i32, align 4
  %3 = alloca i32, align 4
  %4 = alloca ptr, align 8
  %5 = alloca ptr, align 8
  call void @llvm.lifetime.start.p0(i64 4, ptr %1) #7
  store i32 0, ptr %1, align 4, !tbaa !11
  call void @llvm.lifetime.start.p0(i64 4, ptr %2) #7
  store i32 0, ptr %2, align 4, !tbaa !11
  call void @llvm.lifetime.start.p0(i64 4, ptr %3) #7
  store i32 0, ptr %3, align 4, !tbaa !11
  call void @llvm.lifetime.start.p0(i64 8, ptr %4) #7
  store ptr null, ptr %4, align 8, !tbaa !38
  call void @llvm.lifetime.start.p0(i64 8, ptr %5) #7
  store ptr null, ptr %5, align 8, !tbaa !38
  %6 = call ptr @EVP_des_cbc()
  %7 = call ptr @EVP_md5()
  %8 = call i32 @EVP_PBE_alg_add(i32 noundef 10, ptr noundef %6, ptr noundef %7, ptr noundef @PKCS5_PBE_keyivgen)
  %9 = icmp ne i32 %8, 0
  %10 = zext i1 %9 to i32
  %11 = call i32 @test_true(ptr noundef @.str.28, i32 noundef 1404, ptr noundef @.str.229, i32 noundef %10)
  %12 = icmp ne i32 %11, 0
  br i1 %12, label %14, label %13

13:                                               ; preds = %0
  br label %40

14:                                               ; preds = %0
  %15 = call i32 @EVP_PBE_find_ex(i32 noundef 0, i32 noundef 10, ptr noundef %2, ptr noundef %3, ptr noundef %5, ptr noundef %4)
  %16 = icmp ne i32 %15, 0
  %17 = zext i1 %16 to i32
  %18 = call i32 @test_true(ptr noundef @.str.28, i32 noundef 1408, ptr noundef @.str.230, i32 noundef %17)
  %19 = icmp ne i32 %18, 0
  br i1 %19, label %21, label %20

20:                                               ; preds = %14
  br label %40

21:                                               ; preds = %14
  %22 = load ptr, ptr %5, align 8, !tbaa !38
  %23 = icmp ne ptr %22, null
  %24 = zext i1 %23 to i32
  %25 = icmp ne i32 %24, 0
  %26 = zext i1 %25 to i32
  %27 = call i32 @test_true(ptr noundef @.str.28, i32 noundef 1411, ptr noundef @.str.231, i32 noundef %26)
  %28 = icmp ne i32 %27, 0
  br i1 %28, label %30, label %29

29:                                               ; preds = %21
  br label %40

30:                                               ; preds = %21
  %31 = load ptr, ptr %4, align 8, !tbaa !38
  %32 = icmp eq ptr %31, null
  %33 = zext i1 %32 to i32
  %34 = icmp ne i32 %33, 0
  %35 = zext i1 %34 to i32
  %36 = call i32 @test_true(ptr noundef @.str.28, i32 noundef 1413, ptr noundef @.str.232, i32 noundef %35)
  %37 = icmp ne i32 %36, 0
  br i1 %37, label %39, label %38

38:                                               ; preds = %30
  br label %40

39:                                               ; preds = %30
  store i32 1, ptr %1, align 4, !tbaa !11
  br label %40

40:                                               ; preds = %39, %38, %29, %20, %13
  %41 = load i32, ptr %1, align 4, !tbaa !11
  call void @llvm.lifetime.end.p0(i64 8, ptr %5) #7
  call void @llvm.lifetime.end.p0(i64 8, ptr %4) #7
  call void @llvm.lifetime.end.p0(i64 4, ptr %3) #7
  call void @llvm.lifetime.end.p0(i64 4, ptr %2) #7
  call void @llvm.lifetime.end.p0(i64 4, ptr %1) #7
  ret i32 %41
}