; Function Attrs: nounwind uwtable
define internal range(i32 0, 2) i32 @test_evp_pbe_alg_add() #0 {
  %1 = alloca i32, align 4
  %2 = alloca i32, align 4
  %3 = alloca ptr, align 8
  %4 = alloca ptr, align 8
  call void @llvm.lifetime.start.p0(i64 4, ptr nonnull %1) #7
  store i32 0, ptr %1, align 4, !tbaa !22
  call void @llvm.lifetime.start.p0(i64 4, ptr nonnull %2) #7
  store i32 0, ptr %2, align 4, !tbaa !22
  call void @llvm.lifetime.start.p0(i64 8, ptr nonnull %3) #7
  store ptr null, ptr %3, align 8, !tbaa !24
  call void @llvm.lifetime.start.p0(i64 8, ptr nonnull %4) #7
  store ptr null, ptr %4, align 8, !tbaa !24
  %5 = tail call ptr @EVP_des_cbc() #7
  %6 = tail call ptr @EVP_md5() #7
  %7 = tail call i32 @EVP_PBE_alg_add(i32 noundef 10, ptr noundef %5, ptr noundef %6, ptr noundef nonnull @PKCS5_PBE_keyivgen) #7
  %8 = icmp ne i32 %7, 0
  %9 = zext i1 %8 to i32
  %10 = tail call i32 @test_true(ptr noundef nonnull @.str.28, i32 noundef 1404, ptr noundef nonnull @.str.229, i32 noundef %9) #7
  %.not = icmp eq i32 %10, 0
  br i1 %.not, label %26, label %11

11:                                               ; preds = %0
  %12 = call i32 @EVP_PBE_find_ex(i32 noundef 0, i32 noundef 10, ptr noundef nonnull %1, ptr noundef nonnull %2, ptr noundef nonnull %4, ptr noundef nonnull %3) #7
  %13 = icmp ne i32 %12, 0
  %14 = zext i1 %13 to i32
  %15 = call i32 @test_true(ptr noundef nonnull @.str.28, i32 noundef 1408, ptr noundef nonnull @.str.230, i32 noundef %14) #7
  %.not1 = icmp eq i32 %15, 0
  br i1 %.not1, label %26, label %16

16:                                               ; preds = %11
  %17 = load ptr, ptr %4, align 8, !tbaa !24
  %18 = icmp ne ptr %17, null
  %19 = zext i1 %18 to i32
  %20 = call i32 @test_true(ptr noundef nonnull @.str.28, i32 noundef 1411, ptr noundef nonnull @.str.231, i32 noundef %19) #7
  %.not2 = icmp eq i32 %20, 0
  br i1 %.not2, label %26, label %21

21:                                               ; preds = %16
  %22 = load ptr, ptr %3, align 8, !tbaa !24
  %23 = icmp eq ptr %22, null
  %24 = zext i1 %23 to i32
  %25 = call i32 @test_true(ptr noundef nonnull @.str.28, i32 noundef 1413, ptr noundef nonnull @.str.232, i32 noundef %24) #7
  %.not3 = icmp ne i32 %25, 0
  %spec.select = zext i1 %.not3 to i32
  br label %26

26:                                               ; preds = %21, %16, %11, %0
  %.0 = phi i32 [ 0, %16 ], [ 0, %11 ], [ 0, %0 ], [ %spec.select, %21 ]
  call void @llvm.lifetime.end.p0(i64 8, ptr nonnull %4) #7
  call void @llvm.lifetime.end.p0(i64 8, ptr nonnull %3) #7
  call void @llvm.lifetime.end.p0(i64 4, ptr nonnull %2) #7
  call void @llvm.lifetime.end.p0(i64 4, ptr nonnull %1) #7
  ret i32 %.0
}